(dp0
S'accuracies'
p1
(lp2
F88.64
aF93.46
aF96.08
aF96.73
asS'losses'
p3
(lp4
F2.3031558990478516
aF2.4357950687408447
aF2.2513790130615234
aF2.3259501457214355
aF2.590423107147217
aF2.2763164043426514
aF2.260660409927368
aF2.2114734649658203
aF2.1533915996551514
aF2.0064353942871094
aF2.061713695526123
aF2.164241313934326
aF2.019594192504883
aF1.8261702060699463
aF1.55687415599823
aF1.9616045951843262
aF2.211841583251953
aF1.7475357055664062
aF1.6052535772323608
aF1.4654052257537842
aF1.4023768901824951
aF1.4408388137817383
aF1.4996548891067505
aF1.5602262020111084
aF1.2515326738357544
aF1.2688026428222656
aF1.3571110963821411
aF1.3232800960540771
aF1.2191756963729858
aF1.038275122642517
aF0.8021224737167358
aF0.9749050736427307
aF1.0411839485168457
aF1.0577067136764526
aF1.203458309173584
aF1.0102152824401855
aF1.0253220796585083
aF1.1875234842300415
aF0.8944053053855896
aF1.1506251096725464
aF1.1303092241287231
aF0.8097832202911377
aF0.6897656917572021
aF0.6578904390335083
aF0.8533968925476074
aF0.6698330044746399
aF0.7196276187896729
aF0.8817054629325867
aF0.871503472328186
aF0.7409392595291138
aF0.6313725113868713
aF0.626144289970398
aF0.7807924747467041
aF0.5857995748519897
aF0.6745913028717041
aF0.7497165203094482
aF0.6277754306793213
aF0.5798962116241455
aF0.6620842218399048
aF0.6079829931259155
aF0.6056288480758667
aF0.8055578470230103
aF0.7371636629104614
aF0.6090843677520752
aF0.5938940048217773
aF0.4583166539669037
aF0.46717581152915955
aF0.6584243774414062
aF0.5792144536972046
aF0.8037469387054443
aF0.8199459314346313
aF0.5983034372329712
aF0.6744361519813538
aF0.3652448356151581
aF0.45274579524993896
aF0.501707136631012
aF0.505029022693634
aF0.48613277077674866
aF0.538632333278656
aF0.5609541535377502
aF0.39513829350471497
aF0.4153326749801636
aF0.45439812541007996
aF0.5286260843276978
aF0.4260088801383972
aF0.3875848650932312
aF0.39945855736732483
aF0.4493377208709717
aF0.5143624544143677
aF0.4257228672504425
aF0.42462804913520813
aF0.4142657518386841
aF0.4829409420490265
aF0.38834285736083984
aF0.4434491991996765
aF0.30294203758239746
aF0.4954346716403961
aF0.5114937424659729
aF0.5318822264671326
aF0.4056602120399475
aF0.4437327980995178
aF0.3108826279640198
aF0.33006158471107483
aF0.3554384410381317
aF0.47976154088974
aF0.2924885153770447
aF0.33924049139022827
aF0.37535327672958374
aF0.414658784866333
aF0.39565396308898926
aF0.3186892569065094
aF0.3624328374862671
aF0.31237706542015076
aF0.37098783254623413
aF0.29545947909355164
aF0.19050273299217224
aF0.2693230211734772
aF0.3166704475879669
aF0.4308798313140869
aF0.3405712842941284
aF0.4302670657634735
aF0.6134293675422668
aF0.3898690938949585
aF0.34143149852752686
aF0.2882020175457001
aF0.35214510560035706
aF0.42065611481666565
aF0.3809828460216522
aF0.3173198997974396
aF0.3104339838027954
aF0.25710365176200867
aF0.259427011013031
aF0.2860717177391052
aF0.3466325104236603
aF0.3067238926887512
aF0.31328898668289185
aF0.2520325779914856
aF0.25669869780540466
aF0.2875829339027405
aF0.2728329002857208
aF0.39764055609703064
aF0.39594510197639465
aF0.2770528793334961
aF0.16821813583374023
aF0.2584819197654724
aF0.3786824941635132
aF0.563654363155365
aF0.6493814587593079
aF0.6797487735748291
aF0.2480166256427765
aF0.4231424927711487
aF0.23098045587539673
aF0.3083837628364563
aF0.21647371351718903
aF0.23478636145591736
aF0.18797564506530762
aF0.33822983503341675
aF0.21181564033031464
aF0.2834421396255493
aF0.26913487911224365
aF0.275678426027298
aF0.2572585642337799
aF0.33853423595428467
aF0.25072792172431946
aF0.29532137513160706
aF0.2810303866863251
aF0.19523313641548157
aF0.17919406294822693
aF0.3023633360862732
aF0.3120867908000946
aF0.3073227107524872
aF0.2835775911808014
aF0.31931236386299133
aF0.2736744284629822
aF0.3089170753955841
aF0.2064344882965088
aF0.24443238973617554
aF0.23876330256462097
aF0.2598167657852173
aF0.13184590637683868
aF0.18651285767555237
aF0.32812151312828064
aF0.3152766823768616
aF0.25772684812545776
aF0.34032484889030457
aF0.3758849799633026
aF0.1777530461549759
aF0.2624801695346832
aF0.23945148289203644
aF0.18186070024967194
aF0.26717302203178406
aF0.25558021664619446
aF0.19188186526298523
aF0.2479242980480194
aF0.25872379541397095
aF0.24725814163684845
aF0.18189767003059387
aF0.12268970906734467
aF0.16539913415908813
aF0.190377876162529
aF0.2543638348579407
aF0.1575842946767807
aF0.13850077986717224
aF0.1672545224428177
aF0.18437613546848297
aF0.27293145656585693
aF0.2701452970504761
aF0.16467663645744324
aF0.18289309740066528
aF0.2965451776981354
aF0.37374934554100037
aF0.4591090679168701
aF0.1883077621459961
aF0.18883180618286133
aF0.1669067144393921
aF0.14420384168624878
aF0.23451721668243408
aF0.15853454172611237
aF0.1963759809732437
aF0.34467777609825134
aF0.14093759655952454
aF0.12439407408237457
aF0.21899807453155518
aF0.2050444483757019
aF0.1267664134502411
aF0.11057615280151367
aF0.16868939995765686
aF0.1408786177635193
aF0.2169068157672882
aF0.26817554235458374
aF0.19441643357276917
aF0.16988050937652588
aF0.16638650000095367
aF0.1260092556476593
aF0.18583616614341736
aF0.25068092346191406
aF0.17348399758338928
aF0.14472678303718567
aF0.1626381278038025
aF0.1976347118616104
aF0.3373315930366516
aF0.316889226436615
aF0.2841496467590332
aF0.20751738548278809
aF0.17161357402801514
aF0.15618237853050232
aF0.15557965636253357
aF0.1703689694404602
aF0.1930174082517624
aF0.12942816317081451
aF0.05952317640185356
aF0.0881502777338028
aF0.21227769553661346
aF0.30723029375076294
aF0.11299414932727814
aF0.16354860365390778
aF0.06613372266292572
aF0.19688156247138977
aF0.3516956567764282
aF0.33274391293525696
aF0.16978247463703156
aF0.181786447763443
aF0.2087387591600418
aF0.14399921894073486
aF0.21311593055725098
aF0.1432075798511505
aF0.2148401290178299
aF0.13328784704208374
aF0.1486184448003769
aF0.1304168701171875
aF0.160967618227005
aF0.17366376519203186
aF0.21516960859298706
aF0.13196922838687897
aF0.09151662886142731
aF0.14561083912849426
aF0.24071109294891357
aF0.19025906920433044
aF0.18673597276210785
aF0.21389764547348022
aF0.1397409737110138
aF0.11510390788316727
aF0.20233218371868134
aF0.20422236621379852
aF0.36691558361053467
aF0.19160164892673492
aF0.10512353479862213
aF0.10686293244361877
aF0.12120342254638672
aF0.16851788759231567
aF0.14698709547519684
aF0.261181116104126
aF0.1617516130208969
aF0.25920337438583374
aF0.13627101480960846
aF0.19428282976150513
aF0.22528335452079773
aF0.1945475935935974
aF0.17741841077804565
aF0.18975237011909485
aF0.12480767071247101
aF0.18695715069770813
aF0.1899879425764084
aF0.1322503685951233
aF0.08065260946750641
aF0.08818000555038452
aF0.21255679428577423
aF0.2587023079395294
aF0.1662638932466507
aF0.2177562713623047
aF0.14505639672279358
aF0.23241235315799713
aF0.12419389188289642
aF0.14526695013046265
aF0.18488770723342896
aF0.14681842923164368
aF0.12872013449668884
aF0.16740843653678894
aF0.11342774331569672
aF0.08351980149745941
aF0.13120359182357788
aF0.10181034356355667
aF0.0968419685959816
aF0.14853602647781372
aF0.14313271641731262
aF0.11137170344591141
aF0.1738586276769638
aF0.18356484174728394
aF0.15856017172336578
aF0.11425209790468216
aF0.1317940205335617
aF0.1867855191230774
aF0.37076565623283386
aF0.393128901720047
aF0.30372923612594604
aF0.2575567364692688
aF0.1412237584590912
aF0.14981471002101898
aF0.11598671227693558
aF0.11639073491096497
aF0.15880361199378967
aF0.12683281302452087
aF0.07372932136058807
aF0.11674536019563675
aF0.07794781774282455
aF0.112205371260643
aF0.1483038365840912
aF0.08335603773593903
aF0.13706080615520477
aF0.13646964728832245
aF0.16246333718299866
aF0.19216758012771606
aF0.18489311635494232
aF0.25081709027290344
aF0.18411704897880554
aF0.11934231966733932
aF0.1533479392528534
aF0.09687142074108124
aF0.09368018060922623
aF0.08681054413318634
aF0.18908476829528809
aF0.07403132319450378
aF0.21040812134742737
aF0.17468513548374176
aF0.09943647682666779
aF0.1289832592010498
aF0.26288041472435
aF0.1453123241662979
aF0.06997251510620117
aF0.07908283919095993
aF0.16494686901569366
aF0.0523030124604702
aF0.07317765057086945
aF0.12274126708507538
aF0.09875155985355377
aF0.05846894904971123
aF0.07063449919223785
aF0.10004709661006927
aF0.10606235265731812
aF0.05196606367826462
aF0.3087872266769409
aF0.21642374992370605
aF0.16722488403320312
aF0.17226570844650269
aF0.07364042103290558
aF0.0576472170650959
aF0.07121983170509338
aF0.11082489788532257
aF0.14131857454776764
aF0.07319321483373642
aF0.16132716834545135
aF0.16194318234920502
aF0.1502765715122223
aF0.1933216154575348
aF0.10532498359680176
aF0.10535641014575958
aF0.3056778907775879
aF0.14120696485042572
aF0.11079519987106323
aF0.04133276641368866
aF0.042913857847452164
aF0.16988541185855865
aF0.15994469821453094
aF0.20160219073295593
aF0.10327908396720886
aF0.2253936231136322
aF0.1295212209224701
aF0.04997408017516136
aF0.11659751832485199
aF0.0858369916677475
aF0.2109203040599823
aF0.05165998637676239
aF0.11367857456207275
aF0.12953467667102814
aF0.09297448396682739
aF0.14609132707118988
aF0.14779070019721985
aF0.10100141167640686
aF0.10305086523294449
aF0.12833872437477112
aF0.12788546085357666
aF0.11249769479036331
aF0.16725000739097595
aF0.07715296000242233
aF0.0956716313958168
aF0.17214037477970123
aF0.14645926654338837
aF0.10639777779579163
aF0.12966911494731903
aF0.10388754308223724
aF0.11241718381643295
aF0.12286008894443512
aF0.14374512434005737
aF0.08204295486211777
aF0.12967604398727417
aF0.12648120522499084
aF0.1327567994594574
aF0.15353824198246002
aF0.15306998789310455
aF0.09002931416034698
aF0.13622477650642395
aF0.09926943480968475
aF0.17711645364761353
aF0.12609925866127014
aF0.17512458562850952
aF0.0503229983150959
aF0.07000172138214111
aF0.05227414891123772
aF0.050771161913871765
aF0.11997740715742111
aF0.0994703471660614
aF0.12477527558803558
aF0.05627712607383728
aF0.052344635128974915
aF0.08331318199634552
aF0.051700886338949203
aF0.18800616264343262
aF0.2095322161912918
aF0.11763933300971985
aF0.09836328774690628
aF0.043345917016267776
aF0.10567545890808105
aF0.11391831934452057
aF0.11078381538391113
aF0.14538225531578064
aF0.11262120306491852
aF0.07727298885583878
aF0.12799641489982605
aF0.11942559480667114
as.