(dp0
S'accuracies'
p1
(lp2
F21.48
aF28.94
aF42.63
aF45.02
asS'losses'
p3
(lp4
F2.330885648727417
aF2.3377511501312256
aF2.334719657897949
aF2.3010752201080322
aF2.342456102371216
aF2.344848394393921
aF2.3215103149414062
aF2.3020834922790527
aF2.3241944313049316
aF2.326212167739868
aF2.3166251182556152
aF2.3010807037353516
aF2.309988021850586
aF2.342564582824707
aF2.31113600730896
aF2.3097517490386963
aF2.2880609035491943
aF2.278008222579956
aF2.3129525184631348
aF2.304762601852417
aF2.291832447052002
aF2.2894279956817627
aF2.278527021408081
aF2.293402910232544
aF2.2952330112457275
aF2.2973432540893555
aF2.305516481399536
aF2.279442548751831
aF2.2848622798919678
aF2.2870185375213623
aF2.29364275932312
aF2.2761852741241455
aF2.2698750495910645
aF2.2920804023742676
aF2.2878127098083496
aF2.2779338359832764
aF2.279406785964966
aF2.2749409675598145
aF2.2421021461486816
aF2.27463698387146
aF2.272798776626587
aF2.269625425338745
aF2.2729127407073975
aF2.2647252082824707
aF2.2522010803222656
aF2.2513952255249023
aF2.245941638946533
aF2.2594668865203857
aF2.2448534965515137
aF2.226815700531006
aF2.206895589828491
aF2.2118308544158936
aF2.2000808715820312
aF2.2510225772857666
aF2.194551944732666
aF2.202199697494507
aF2.1755130290985107
aF2.163612127304077
aF2.174614906311035
aF2.180241107940674
aF2.1667535305023193
aF2.1609060764312744
aF2.1155941486358643
aF2.161585807800293
aF2.150775909423828
aF2.1375575065612793
aF2.1110920906066895
aF2.1046221256256104
aF2.1395602226257324
aF2.080899477005005
aF2.075016975402832
aF2.062035083770752
aF2.07192063331604
aF2.0849902629852295
aF2.0655574798583984
aF2.0708727836608887
aF2.098684310913086
aF2.0511879920959473
aF2.040422201156616
aF2.1261773109436035
aF2.063232660293579
aF2.0477707386016846
aF2.035367727279663
aF2.101553201675415
aF2.0836234092712402
aF2.0862107276916504
aF2.0611815452575684
aF2.0045154094696045
aF1.996948480606079
aF2.0237858295440674
aF1.9955830574035645
aF2.0696682929992676
aF1.9797751903533936
aF2.037693500518799
aF2.034212350845337
aF1.9564483165740967
aF2.0315401554107666
aF2.043977975845337
aF2.0291595458984375
aF2.0334179401397705
aF2.0238285064697266
aF2.0223748683929443
aF2.0870184898376465
aF2.0055949687957764
aF2.035954713821411
aF2.0425326824188232
aF2.014209747314453
aF1.9824105501174927
aF2.0011954307556152
aF1.9946874380111694
aF2.041954278945923
aF2.006561040878296
aF1.961961269378662
aF1.9712755680084229
aF2.0086910724639893
aF1.9460307359695435
aF1.9700018167495728
aF1.9359415769577026
aF2.001535177230835
aF1.973840594291687
aF2.0396246910095215
aF2.005619764328003
aF1.9647257328033447
aF2.002592086791992
aF1.9639252424240112
aF1.8526806831359863
aF1.9621576070785522
aF2.006838083267212
aF1.903406023979187
aF1.952080249786377
aF1.9140924215316772
aF1.903893232345581
aF1.9353636503219604
aF1.962104082107544
aF2.0260791778564453
aF1.937928557395935
aF1.8940556049346924
aF1.888770341873169
aF1.9387238025665283
aF1.969380259513855
aF1.870941162109375
aF1.883180022239685
aF1.9111709594726562
aF1.9232193231582642
aF1.9095149040222168
aF2.003872871398926
aF1.944790005683899
aF1.890734314918518
aF1.9718269109725952
aF1.8342081308364868
aF1.902286410331726
aF1.9149137735366821
aF1.8986597061157227
aF1.9099396467208862
aF1.8960397243499756
aF1.8363574743270874
aF1.8820979595184326
aF1.9523825645446777
aF1.8123589754104614
aF1.919487476348877
aF1.9017932415008545
aF1.8726856708526611
aF1.877280592918396
aF1.918410301208496
aF1.8415793180465698
aF1.8982760906219482
aF1.8457540273666382
aF1.8938157558441162
aF1.813103199005127
aF1.9007865190505981
aF1.9022356271743774
aF1.8571685552597046
aF1.8349635601043701
aF1.825622320175171
aF1.847214937210083
aF1.891622543334961
aF1.8405226469039917
aF1.7977219820022583
aF1.893178105354309
aF1.8318586349487305
aF1.8835903406143188
aF1.8146896362304688
aF1.869896411895752
aF1.8678572177886963
aF1.8820998668670654
aF1.8059719800949097
aF1.785664677619934
aF1.9051012992858887
aF1.8272470235824585
aF1.8523404598236084
aF1.863245964050293
aF1.830917477607727
aF1.8644424676895142
aF1.9282702207565308
aF1.8246911764144897
aF1.8108845949172974
aF1.805584192276001
aF1.8732564449310303
aF1.787134051322937
aF1.877296805381775
aF1.8687225580215454
aF1.7511659860610962
aF1.7449520826339722
aF1.7503854036331177
aF1.8076034784317017
aF1.8119314908981323
aF1.8577642440795898
aF1.7659481763839722
aF1.7004390954971313
aF1.911445140838623
aF1.8139994144439697
aF1.8300976753234863
aF1.7253180742263794
aF1.7753716707229614
aF1.8023561239242554
aF1.787593960762024
aF1.8284677267074585
aF1.7252236604690552
aF1.7903059720993042
aF1.8649266958236694
aF1.8332077264785767
aF1.7894010543823242
aF1.7847568988800049
aF1.8610295057296753
aF1.7505391836166382
aF1.8089394569396973
aF1.7322394847869873
aF1.74885094165802
aF1.7920864820480347
aF1.7701574563980103
aF1.7455313205718994
aF1.7904285192489624
aF1.662914752960205
aF1.7992186546325684
aF1.6541961431503296
aF1.7727794647216797
aF1.8601875305175781
aF1.786087155342102
aF1.8264248371124268
aF1.758924126625061
aF1.7687158584594727
aF1.8831108808517456
aF1.7046210765838623
aF1.7436965703964233
aF1.719089388847351
aF1.7848011255264282
aF1.821429967880249
aF1.8027198314666748
aF1.763187050819397
aF1.7091825008392334
aF1.7006263732910156
aF1.750235915184021
aF1.7894842624664307
aF1.7923463582992554
aF1.7659862041473389
aF1.6582087278366089
aF1.7342262268066406
aF1.738975167274475
aF1.7226064205169678
aF1.7177718877792358
aF1.6993916034698486
aF1.7747267484664917
aF1.7694436311721802
aF1.7389799356460571
aF1.7570016384124756
aF1.8319777250289917
aF1.6581991910934448
aF1.755385160446167
aF1.6771093606948853
aF1.7663416862487793
aF1.680496335029602
aF1.6247860193252563
aF1.738333821296692
aF1.7065097093582153
aF1.7369297742843628
aF1.7160974740982056
aF1.7347795963287354
aF1.7094007730484009
aF1.696823239326477
aF1.756906270980835
aF1.7518078088760376
aF1.697155475616455
aF1.740132212638855
aF1.7021892070770264
aF1.6599392890930176
aF1.7609163522720337
aF1.687656044960022
aF1.6637030839920044
aF1.7053316831588745
aF1.7616989612579346
aF1.6878997087478638
aF1.6796759366989136
aF1.7441245317459106
aF1.639790654182434
aF1.6766644716262817
aF1.711098551750183
aF1.6917028427124023
aF1.7006843090057373
aF1.7514115571975708
aF1.7085260152816772
aF1.6679880619049072
aF1.651974081993103
aF1.7325823307037354
aF1.730414867401123
aF1.6085258722305298
aF1.6533257961273193
aF1.6739743947982788
aF1.6285372972488403
aF1.650216817855835
aF1.7525969743728638
aF1.665010690689087
aF1.6046053171157837
aF1.6922563314437866
aF1.693816065788269
aF1.6232839822769165
aF1.637439489364624
aF1.6318715810775757
aF1.6540961265563965
aF1.7355667352676392
aF1.6975923776626587
aF1.6545507907867432
aF1.7476210594177246
aF1.5972763299942017
aF1.664476990699768
aF1.6978604793548584
aF1.610939621925354
aF1.653334140777588
aF1.6177929639816284
aF1.5964196920394897
aF1.7073851823806763
aF1.5999876260757446
aF1.651903510093689
aF1.5943105220794678
aF1.7215772867202759
aF1.667963981628418
aF1.6252150535583496
aF1.6626802682876587
aF1.666468620300293
aF1.6627583503723145
aF1.6969133615493774
aF1.6336126327514648
aF1.711781620979309
aF1.6118385791778564
aF1.5891740322113037
aF1.6462140083312988
aF1.5816270112991333
aF1.6038427352905273
aF1.6825355291366577
aF1.5682390928268433
aF1.5743601322174072
aF1.5706743001937866
aF1.6085841655731201
aF1.636546015739441
aF1.5725053548812866
aF1.5434399843215942
aF1.5527091026306152
aF1.5905671119689941
aF1.5920474529266357
aF1.6792975664138794
aF1.6261608600616455
aF1.607993483543396
aF1.615215539932251
aF1.5278397798538208
aF1.654586672782898
aF1.580278992652893
aF1.6250988245010376
aF1.6200155019760132
aF1.584067463874817
aF1.5661687850952148
aF1.5668270587921143
aF1.6336493492126465
aF1.6656818389892578
aF1.537360668182373
aF1.6089372634887695
aF1.713276982307434
aF1.5585800409317017
aF1.6607078313827515
aF1.6194050312042236
aF1.5973124504089355
aF1.5879011154174805
aF1.556889295578003
aF1.5744202136993408
aF1.727688193321228
aF1.5835659503936768
aF1.591835379600525
aF1.5796287059783936
aF1.5882349014282227
aF1.585076928138733
aF1.5497074127197266
aF1.6089210510253906
aF1.5808320045471191
aF1.5834211111068726
aF1.6058642864227295
aF1.5625499486923218
aF1.5360950231552124
aF1.612506628036499
aF1.5917106866836548
aF1.5318520069122314
aF1.5297801494598389
aF1.6165281534194946
aF1.4856594800949097
aF1.6619665622711182
aF1.6420658826828003
aF1.6622220277786255
aF1.5386228561401367
aF1.5889179706573486
aF1.6579867601394653
aF1.52664053440094
aF1.5936425924301147
aF1.5358288288116455
aF1.5822503566741943
aF1.5048843622207642
aF1.5216195583343506
aF1.53813636302948
aF1.5572309494018555
aF1.5425351858139038
aF1.6179088354110718
aF1.5575085878372192
aF1.5944666862487793
aF1.5393145084381104
aF1.5534353256225586
aF1.545089840888977
aF1.5999212265014648
aF1.579551100730896
aF1.5625755786895752
aF1.4762961864471436
aF1.6441912651062012
aF1.5500335693359375
aF1.5039050579071045
aF1.6395395994186401
aF1.558271050453186
aF1.5738178491592407
aF1.5966787338256836
aF1.5454422235488892
aF1.5622594356536865
aF1.474794864654541
aF1.654478907585144
aF1.449116587638855
aF1.6423419713974
aF1.524162769317627
aF1.5278105735778809
aF1.5136021375656128
aF1.592159390449524
aF1.5032845735549927
aF1.5656253099441528
aF1.5205440521240234
aF1.5077321529388428
aF1.4835855960845947
aF1.525598406791687
aF1.6229326725006104
aF1.4915180206298828
aF1.5158895254135132
aF1.5269466638565063
aF1.5111336708068848
aF1.536621332168579
aF1.5508770942687988
aF1.5524405241012573
aF1.5563346147537231
aF1.6183794736862183
aF1.5539785623550415
aF1.4650981426239014
aF1.5875568389892578
aF1.5196905136108398
aF1.5671285390853882
aF1.5386096239089966
aF1.4023486375808716
aF1.4972254037857056
aF1.4683265686035156
aF1.611863136291504
as.