(dp0
S'accuracies'
p1
(lp2
F29.07
aF33.83
aF36.12
aF41.96
asS'losses'
p3
(lp4
F2.324110746383667
aF2.3217201232910156
aF2.3094727993011475
aF2.325852870941162
aF2.310084819793701
aF2.2979838848114014
aF2.318298101425171
aF2.3020505905151367
aF2.304868698120117
aF2.3164234161376953
aF2.2933101654052734
aF2.3031411170959473
aF2.2923412322998047
aF2.2982237339019775
aF2.330235719680786
aF2.3078460693359375
aF2.3115897178649902
aF2.306612014770508
aF2.2956771850585938
aF2.297384023666382
aF2.300804615020752
aF2.3056516647338867
aF2.2965149879455566
aF2.311591148376465
aF2.3037915229797363
aF2.297687530517578
aF2.304996967315674
aF2.314960241317749
aF2.3126323223114014
aF2.297609567642212
aF2.2993500232696533
aF2.2776036262512207
aF2.289529800415039
aF2.2915539741516113
aF2.2906582355499268
aF2.2762393951416016
aF2.2804667949676514
aF2.2758255004882812
aF2.2822036743164062
aF2.2568442821502686
aF2.27905011177063
aF2.2502355575561523
aF2.2681195735931396
aF2.2566587924957275
aF2.2548372745513916
aF2.234626531600952
aF2.2401089668273926
aF2.214578628540039
aF2.240478038787842
aF2.239147901535034
aF2.2157492637634277
aF2.208817481994629
aF2.2043936252593994
aF2.220456838607788
aF2.2098138332366943
aF2.2101757526397705
aF2.178027868270874
aF2.178004503250122
aF2.211779832839966
aF2.1996700763702393
aF2.1830859184265137
aF2.1647634506225586
aF2.167314291000366
aF2.1694345474243164
aF2.137624502182007
aF2.1621956825256348
aF2.115474224090576
aF2.117145538330078
aF2.1796393394470215
aF2.114678382873535
aF2.1592094898223877
aF2.182183027267456
aF2.1775176525115967
aF2.214083671569824
aF2.153130531311035
aF2.1743249893188477
aF2.159047842025757
aF2.1032094955444336
aF2.2010209560394287
aF2.120680332183838
aF2.1336686611175537
aF2.1016111373901367
aF2.1429636478424072
aF2.123258113861084
aF2.0938005447387695
aF2.180520534515381
aF2.1280999183654785
aF2.126091957092285
aF2.14040470123291
aF2.112060546875
aF2.1734988689422607
aF2.0769903659820557
aF2.0453579425811768
aF2.1240041255950928
aF2.070985794067383
aF2.1122052669525146
aF2.05710506439209
aF2.13948392868042
aF2.0798254013061523
aF2.0928821563720703
aF2.0618557929992676
aF2.0821022987365723
aF2.064182758331299
aF2.0784006118774414
aF2.0829551219940186
aF2.0093674659729004
aF2.030601739883423
aF2.0491092205047607
aF2.102742910385132
aF2.097788095474243
aF2.118439197540283
aF2.005491018295288
aF2.1166677474975586
aF2.018270254135132
aF2.090981960296631
aF2.0722124576568604
aF2.091838836669922
aF2.003601551055908
aF2.0969343185424805
aF2.0040805339813232
aF2.042341709136963
aF2.0372228622436523
aF2.0310637950897217
aF2.0046613216400146
aF2.019754409790039
aF2.041757106781006
aF2.0639524459838867
aF2.045555830001831
aF2.0565249919891357
aF2.0523698329925537
aF2.018681526184082
aF2.041754961013794
aF2.02260160446167
aF2.049051284790039
aF2.0633628368377686
aF2.031684398651123
aF1.9890542030334473
aF2.0097904205322266
aF2.0209999084472656
aF2.00199294090271
aF2.02778959274292
aF2.0705103874206543
aF1.993774652481079
aF1.9897533655166626
aF1.97348153591156
aF1.9258962869644165
aF2.0123238563537598
aF1.9244301319122314
aF2.00844407081604
aF2.02694034576416
aF2.046788454055786
aF1.9729706048965454
aF1.9724831581115723
aF1.991026759147644
aF1.9343538284301758
aF1.9296060800552368
aF2.0074524879455566
aF2.058117151260376
aF1.9912855625152588
aF1.970088005065918
aF1.937351942062378
aF1.9197540283203125
aF1.9741917848587036
aF1.958850622177124
aF1.9550281763076782
aF1.8832831382751465
aF1.8572452068328857
aF1.9545514583587646
aF1.9422593116760254
aF1.930789828300476
aF2.000666856765747
aF1.9364354610443115
aF1.9369492530822754
aF1.9451595544815063
aF1.9154062271118164
aF1.8864976167678833
aF1.9338200092315674
aF1.9977102279663086
aF1.9224684238433838
aF1.9204134941101074
aF1.8255703449249268
aF1.9767026901245117
aF1.8422797918319702
aF1.9164260625839233
aF1.9742339849472046
aF1.9148404598236084
aF1.9759880304336548
aF1.8571633100509644
aF1.8687118291854858
aF1.927504539489746
aF1.9084572792053223
aF1.8906073570251465
aF1.8731141090393066
aF1.9671673774719238
aF1.9502861499786377
aF1.9011964797973633
aF1.8910272121429443
aF1.8688818216323853
aF1.885080099105835
aF1.9611376523971558
aF1.8237546682357788
aF1.7991191148757935
aF1.9363300800323486
aF1.9323779344558716
aF1.9297202825546265
aF1.7879540920257568
aF1.9070103168487549
aF1.9052621126174927
aF1.8184449672698975
aF1.8125277757644653
aF1.8557980060577393
aF1.879747748374939
aF1.8364801406860352
aF1.8281400203704834
aF1.811856985092163
aF1.8530869483947754
aF1.7917978763580322
aF1.9748927354812622
aF1.835601568222046
aF1.8580564260482788
aF1.8840676546096802
aF1.8621246814727783
aF1.8209227323532104
aF1.8609137535095215
aF1.8011376857757568
aF1.8274719715118408
aF1.866317629814148
aF1.8711678981781006
aF1.7830616235733032
aF1.858392596244812
aF1.7613781690597534
aF1.8510301113128662
aF1.7360063791275024
aF1.7779122591018677
aF1.7756586074829102
aF1.8371819257736206
aF1.8403414487838745
aF1.7993948459625244
aF1.8271023035049438
aF1.780704379081726
aF1.7809765338897705
aF1.7901724576950073
aF1.7587562799453735
aF1.7591948509216309
aF1.847948431968689
aF1.6970806121826172
aF1.8491145372390747
aF1.7735919952392578
aF1.8059096336364746
aF1.795955777168274
aF1.7918658256530762
aF1.7512725591659546
aF1.7584244012832642
aF1.8622100353240967
aF1.7229009866714478
aF1.8002325296401978
aF1.7729181051254272
aF1.7349388599395752
aF1.8213213682174683
aF1.827047348022461
aF1.6949009895324707
aF1.7899523973464966
aF1.697387456893921
aF1.8576767444610596
aF1.8269566297531128
aF1.7808550596237183
aF1.7752442359924316
aF1.7373344898223877
aF1.7734127044677734
aF1.7399306297302246
aF1.7386903762817383
aF1.7043932676315308
aF1.7749251127243042
aF1.7865251302719116
aF1.7958550453186035
aF1.789191484451294
aF1.784730076789856
aF1.717776894569397
aF1.7441766262054443
aF1.7554197311401367
aF1.7537200450897217
aF1.7954007387161255
aF1.737499475479126
aF1.779059648513794
aF1.7346075773239136
aF1.7905826568603516
aF1.6750458478927612
aF1.6916210651397705
aF1.7394285202026367
aF1.6967660188674927
aF1.8014965057373047
aF1.66078519821167
aF1.7718911170959473
aF1.7613564729690552
aF1.6244131326675415
aF1.741551160812378
aF1.7315162420272827
aF1.6572200059890747
aF1.6333211660385132
aF1.6480270624160767
aF1.7557716369628906
aF1.5965447425842285
aF1.7866170406341553
aF1.7144123315811157
aF1.763053059577942
aF1.6799499988555908
aF1.70962393283844
aF1.6419918537139893
aF1.6657103300094604
aF1.7218577861785889
aF1.6895681619644165
aF1.6038668155670166
aF1.6471683979034424
aF1.6587061882019043
aF1.6850166320800781
aF1.7033147811889648
aF1.6461559534072876
aF1.6179330348968506
aF1.7605873346328735
aF1.742024302482605
aF1.6950509548187256
aF1.7891695499420166
aF1.6865876913070679
aF1.6963251829147339
aF1.6789369583129883
aF1.743481159210205
aF1.6421831846237183
aF1.6683216094970703
aF1.7009748220443726
aF1.5727770328521729
aF1.643761396408081
aF1.6233242750167847
aF1.6783475875854492
aF1.6097911596298218
aF1.6658329963684082
aF1.6150044202804565
aF1.7308275699615479
aF1.6811518669128418
aF1.6642619371414185
aF1.6858159303665161
aF1.6614238023757935
aF1.5489298105239868
aF1.6859937906265259
aF1.6361507177352905
aF1.6453779935836792
aF1.686204433441162
aF1.5995008945465088
aF1.7073687314987183
aF1.6230040788650513
aF1.6680803298950195
aF1.66886305809021
aF1.7229599952697754
aF1.7409937381744385
aF1.635736346244812
aF1.6337016820907593
aF1.7632734775543213
aF1.6676782369613647
aF1.6071897745132446
aF1.6455637216567993
aF1.6279492378234863
aF1.632488489151001
aF1.610177993774414
aF1.6746093034744263
aF1.443597674369812
aF1.7067607641220093
aF1.5344135761260986
aF1.549698829650879
aF1.6099401712417603
aF1.5979875326156616
aF1.5688406229019165
aF1.5056663751602173
aF1.7095893621444702
aF1.6685115098953247
aF1.7226979732513428
aF1.5079150199890137
aF1.6125314235687256
aF1.627898097038269
aF1.5591158866882324
aF1.5972049236297607
aF1.554651141166687
aF1.6431050300598145
aF1.5100771188735962
aF1.6960176229476929
aF1.678133249282837
aF1.6673539876937866
aF1.6209838390350342
aF1.5395444631576538
aF1.6032556295394897
aF1.570138692855835
aF1.6660047769546509
aF1.6255546808242798
aF1.5918309688568115
aF1.5798664093017578
aF1.6687078475952148
aF1.5210633277893066
aF1.5344493389129639
aF1.6105555295944214
aF1.6046874523162842
aF1.6353172063827515
aF1.636228322982788
aF1.5783412456512451
aF1.6284493207931519
aF1.602782130241394
aF1.603352427482605
aF1.6295132637023926
aF1.6361624002456665
aF1.6361695528030396
aF1.5531421899795532
aF1.58725905418396
aF1.6771328449249268
aF1.5851019620895386
aF1.6585712432861328
aF1.5390254259109497
aF1.5641299486160278
aF1.6399192810058594
aF1.4828941822052002
aF1.569968581199646
aF1.5310964584350586
aF1.591962456703186
aF1.509210228919983
aF1.6116946935653687
aF1.4644689559936523
aF1.5530052185058594
aF1.6438161134719849
aF1.4778919219970703
aF1.4911879301071167
aF1.5425316095352173
aF1.5178431272506714
aF1.5676912069320679
aF1.563054084777832
aF1.560469388961792
aF1.448491096496582
aF1.5598127841949463
aF1.4476561546325684
aF1.552846908569336
aF1.548295497894287
aF1.61110258102417
aF1.520430564880371
aF1.585659146308899
aF1.5145381689071655
aF1.4051522016525269
aF1.4338116645812988
aF1.4579336643218994
aF1.5267291069030762
aF1.545735478401184
aF1.3469632863998413
aF1.5427305698394775
aF1.6478571891784668
aF1.5597376823425293
aF1.6062445640563965
aF1.4935741424560547
aF1.5430774688720703
aF1.4809684753417969
aF1.6529797315597534
aF1.527976155281067
aF1.5054683685302734
aF1.6578603982925415
aF1.4977277517318726
aF1.4982975721359253
aF1.4801890850067139
aF1.5660609006881714
aF1.4830678701400757
aF1.457828402519226
aF1.5614140033721924
aF1.4714341163635254
aF1.4097825288772583
aF1.4706153869628906
aF1.5768531560897827
aF1.5466727018356323
as.